; Function Attrs: mustprogress uwtable
define void @uregex_setUText_75(ptr noundef %regexp2, ptr noundef %text, ptr nocapture noundef %status) local_unnamed_addr #5 {
entry:
  %0 = load i32, ptr %status, align 4
  %cmp.i.i = icmp slt i32 %0, 1
  br i1 %cmp.i.i, label %if.end.i, label %return

if.end.i:                                         ; preds = %entry
  %cmp.i = icmp eq ptr %regexp2, null
  br i1 %cmp.i, label %return.sink.split.i, label %lor.lhs.false.i

lor.lhs.false.i:                                  ; preds = %if.end.i
  %1 = load i32, ptr %regexp2, align 8
  %cmp1.not.i = icmp eq i32 %1, 1919252592
  br i1 %cmp1.not.i, label %if.end, label %return.sink.split.i

return.sink.split.i:                              ; preds = %lor.lhs.false.i, %if.end.i
  store i32 1, ptr %status, align 4
  br label %return

if.end:                                           ; preds = %lor.lhs.false.i
  %cmp1 = icmp eq ptr %text, null
  br i1 %cmp1, label %if.then2, label %if.end3

if.then2:                                         ; preds = %if.end
  store i32 1, ptr %status, align 4
  br label %return

if.end3:                                          ; preds = %if.end
  %fOwnsText = getelementptr inbounds i8, ptr %regexp2, i64 60
  %2 = load i8, ptr %fOwnsText, align 4
  %tobool.not = icmp eq i8 %2, 0
  br i1 %tobool.not, label %if.end7, label %land.lhs.true

land.lhs.true:                                    ; preds = %if.end3
  %fText = getelementptr inbounds i8, ptr %regexp2, i64 48
  %3 = load ptr, ptr %fText, align 8
  %cmp4.not = icmp eq ptr %3, null
  br i1 %cmp4.not, label %if.end7, label %if.then5

if.then5:                                         ; preds = %land.lhs.true
  tail call void @uprv_free_75(ptr noundef nonnull %3)
  br label %if.end7

if.end7:                                          ; preds = %if.then5, %land.lhs.true, %if.end3
  %fText8 = getelementptr inbounds i8, ptr %regexp2, i64 48
  store ptr null, ptr %fText8, align 8
  %fTextLength = getelementptr inbounds i8, ptr %regexp2, i64 56
  store i32 -1, ptr %fTextLength, align 8
  store i8 1, ptr %fOwnsText, align 4
  %fMatcher = getelementptr inbounds i8, ptr %regexp2, i64 40
  %4 = load ptr, ptr %fMatcher, align 8
  %call10 = tail call noundef nonnull align 8 dereferenceable(336) ptr @_ZN6icu_7512RegexMatcher5resetEP5UText(ptr noundef nonnull align 8 dereferenceable(336) %4, ptr noundef nonnull %text)
  br label %return

return:                                           ; preds = %return.sink.split.i, %entry, %if.end7, %if.then2
  ret void
}